target datalayout = "e-m:e-p270:32:32-p271:32:32-p272:64:64-i64:64-i128:128-f80:128-n8:16:32:64-S128"
target triple = "x86_64-pc-linux-gnu"

%struct.AVCodecContext = type { ptr, i32, i32, ptr, i32, i32, ptr, ptr, ptr, i64, i32, i32, ptr, i32, %struct.AVRational, %struct.AVRational, %struct.AVRational, i32, i32, i32, i32, i32, %struct.AVRational, i32, i32, i32, i32, i32, i32, i32, i32, i32, i32, i32, ptr, ptr, i32, float, float, float, float, float, float, float, float, float, i32, i32, i32, i32, i32, i32, i32, i32, i32, i32, i32, i32, ptr, ptr, ptr, i32, i32, i32, i32, i32, i32, i32, i32, i32, i32, %struct.AVChannelLayout, i32, i32, i32, i32, i32, i32, i32, i32, ptr, i32, i32, i32, float, float, i32, i32, i32, i32, i32, ptr, i64, i64, float, float, i32, i32, ptr, ptr, i32, i32, i32, i32, i32, ptr, ptr, ptr, ptr, i32, i32, [8 x i64], i32, i32, i32, i32, i32, i32, i32, ptr, ptr, i32, i32, i32, i32, i32, i32, i32, i32, i32, i32, ptr, ptr, i32, i32, ptr, ptr, ptr, ptr, i32, i32, i64, i32, i32, i64, ptr, i64, ptr, i32, ptr, i32 }
%struct.AVRational = type { i32, i32 }
%struct.AVChannelLayout = type { i32, i32, %union.anon, ptr }
%union.anon = type { i64 }
%struct.MJpegDecodeContext = type { ptr, ptr, %struct.GetBitContext, i32, i32, i32, ptr, [4 x [64 x i16]], [3 x [4 x %struct.VLC]], [4 x i32], i32, i32, i32, i32, i32, i32, i32, i32, i32, [4 x i8], [4 x i8], i32, i32, i32, i32, i32, i32, i32, i32, i32, i32, i32, i32, i32, i32, i32, i32, i32, [4 x i32], [4 x i32], [4 x i32], [4 x i32], [4 x i32], [4 x i32], [4 x i32], [4 x i32], [4 x i32], [4 x i32], [4 x i32], i32, i32, [4 x i32], [4 x i32], ptr, ptr, i32, [4 x i32], ptr, [64 x i16], [4 x ptr], [4 x ptr], [4 x i64], i32, i32, [64 x i8], %struct.BlockDSPContext, %struct.HpelDSPContext, %struct.IDCTDSPContext, i32, i32, i32, i32, i32, i32, i32, i32, i32, ptr, i32, i32, ptr, ptr, ptr, ptr, i32, i32, ptr, i32, i32, ptr, i64, ptr, i64, [2 x [4 x [16 x i8]]], [2 x [4 x [256 x i8]]], i32, i32, ptr, ptr, [8 x i8] }
%struct.GetBitContext = type { ptr, ptr, i32, i32, i32 }
%struct.VLC = type { i32, ptr, i32, i32 }
%struct.BlockDSPContext = type { ptr, ptr, [2 x ptr] }
%struct.HpelDSPContext = type { [4 x [4 x ptr]], [4 x [4 x ptr]], [4 x [4 x ptr]], [4 x ptr] }
%struct.IDCTDSPContext = type { ptr, ptr, ptr, ptr, ptr, ptr, [64 x i8], i32, i32 }
%struct.AVFrame = type { [8 x ptr], [8 x i32], ptr, i32, i32, i32, i32, i32, %struct.AVRational, i64, i64, %struct.AVRational, i32, ptr, i32, i32, [8 x ptr], ptr, i32, ptr, i32, i32, i32, i32, i32, i32, i32, i64, ptr, i32, ptr, ptr, i64, i64, i64, i64, ptr, %struct.AVChannelLayout, i64 }
%struct.AVPacket = type { ptr, i64, i64, ptr, i32, i32, i32, ptr, i32, i64, i64, ptr, ptr, %struct.AVRational }
%struct.AVCodecInternal = type { i32, i32, i32, ptr, ptr, ptr, ptr, ptr, ptr, ptr, i32, ptr, ptr, ptr, i32, i32, ptr, i32, ptr, ptr, i32, i32 }

@.str.26 = private unnamed_addr constant [30 x i8] c"Assertion %s failed at %s:%d\0A\00", align 1
@.str.28 = private unnamed_addr constant [22 x i8] c"libavcodec/mjpegdec.c\00", align 1
@.str.155 = private unnamed_addr constant [21 x i8] c"s->smv_frame->buf[0]\00", align 1
@.str.156 = private unnamed_addr constant [63 x i8] c"(s->smv_next_frame + 1) * avctx->height <= avctx->coded_height\00", align 1

; Function Attrs: nounwind uwtable
define internal void @smv_process_frame(ptr noundef %0, ptr noundef %1) #3 {
  %3 = alloca ptr, align 8
  %4 = alloca ptr, align 8
  %5 = alloca ptr, align 8
  store ptr %0, ptr %3, align 8, !tbaa !4
  store ptr %1, ptr %4, align 8, !tbaa !155
  call void @llvm.lifetime.start.p0(i64 8, ptr %5) #13
  %6 = load ptr, ptr %3, align 8, !tbaa !4
  %7 = getelementptr inbounds nuw %struct.AVCodecContext, ptr %6, i32 0, i32 6
  %8 = load ptr, ptr %7, align 8, !tbaa !9
  store ptr %8, ptr %5, align 8, !tbaa !29
  br label %9

9:                                                ; preds = %2
  %10 = load ptr, ptr %5, align 8, !tbaa !29
  %11 = getelementptr inbounds nuw %struct.MJpegDecodeContext, ptr %10, i32 0, i32 88
  %12 = load i32, ptr %11, align 4, !tbaa !294
  %13 = add nsw i32 %12, 1
  %14 = load ptr, ptr %3, align 8, !tbaa !4
  %15 = getelementptr inbounds nuw %struct.AVCodecContext, ptr %14, i32 0, i32 19
  %16 = load i32, ptr %15, align 4, !tbaa !129
  %17 = mul nsw i32 %13, %16
  %18 = load ptr, ptr %3, align 8, !tbaa !4
  %19 = getelementptr inbounds nuw %struct.AVCodecContext, ptr %18, i32 0, i32 21
  %20 = load i32, ptr %19, align 4, !tbaa !51
  %21 = icmp sle i32 %17, %20
  br i1 %21, label %23, label %22

22:                                               ; preds = %9
  call void (ptr, i32, ptr, ...) @av_log(ptr noundef null, i32 noundef 0, ptr noundef @.str.26, ptr noundef @.str.156, ptr noundef @.str.28, i32 noundef 3062)
  call void @abort() #16
  unreachable

23:                                               ; preds = %9
  br label %24

24:                                               ; preds = %23
  br label %25

25:                                               ; preds = %24
  %26 = load ptr, ptr %3, align 8, !tbaa !4
  %27 = getelementptr inbounds nuw %struct.AVCodecContext, ptr %26, i32 0, i32 20
  %28 = load i32, ptr %27, align 8, !tbaa !327
  %29 = load ptr, ptr %4, align 8, !tbaa !155
  %30 = getelementptr inbounds nuw %struct.AVFrame, ptr %29, i32 0, i32 3
  store i32 %28, ptr %30, align 8, !tbaa !156
  %31 = load ptr, ptr %3, align 8, !tbaa !4
  %32 = getelementptr inbounds nuw %struct.AVCodecContext, ptr %31, i32 0, i32 21
  %33 = load i32, ptr %32, align 4, !tbaa !51
  %34 = load ptr, ptr %4, align 8, !tbaa !155
  %35 = getelementptr inbounds nuw %struct.AVFrame, ptr %34, i32 0, i32 4
  store i32 %33, ptr %35, align 4, !tbaa !157
  %36 = load ptr, ptr %5, align 8, !tbaa !29
  %37 = getelementptr inbounds nuw %struct.MJpegDecodeContext, ptr %36, i32 0, i32 88
  %38 = load i32, ptr %37, align 4, !tbaa !294
  %39 = load ptr, ptr %3, align 8, !tbaa !4
  %40 = getelementptr inbounds nuw %struct.AVCodecContext, ptr %39, i32 0, i32 19
  %41 = load i32, ptr %40, align 4, !tbaa !129
  %42 = mul nsw i32 %38, %41
  %43 = load ptr, ptr %4, align 8, !tbaa !155
  %44 = getelementptr inbounds nuw %struct.AVFrame, ptr %43, i32 0, i32 4
  %45 = load i32, ptr %44, align 4, !tbaa !157
  %46 = icmp sgt i32 %42, %45
  br i1 %46, label %47, label %51

47:                                               ; preds = %25
  %48 = load ptr, ptr %4, align 8, !tbaa !155
  %49 = getelementptr inbounds nuw %struct.AVFrame, ptr %48, i32 0, i32 4
  %50 = load i32, ptr %49, align 4, !tbaa !157
  br label %59

51:                                               ; preds = %25
  %52 = load ptr, ptr %5, align 8, !tbaa !29
  %53 = getelementptr inbounds nuw %struct.MJpegDecodeContext, ptr %52, i32 0, i32 88
  %54 = load i32, ptr %53, align 4, !tbaa !294
  %55 = load ptr, ptr %3, align 8, !tbaa !4
  %56 = getelementptr inbounds nuw %struct.AVCodecContext, ptr %55, i32 0, i32 19
  %57 = load i32, ptr %56, align 4, !tbaa !129
  %58 = mul nsw i32 %54, %57
  br label %59

59:                                               ; preds = %51, %47
  %60 = phi i32 [ %50, %47 ], [ %58, %51 ]
  %61 = sext i32 %60 to i64
  %62 = load ptr, ptr %4, align 8, !tbaa !155
  %63 = getelementptr inbounds nuw %struct.AVFrame, ptr %62, i32 0, i32 32
  store i64 %61, ptr %63, align 8, !tbaa !272
  %64 = load ptr, ptr %4, align 8, !tbaa !155
  %65 = getelementptr inbounds nuw %struct.AVFrame, ptr %64, i32 0, i32 4
  %66 = load i32, ptr %65, align 4, !tbaa !157
  %67 = load ptr, ptr %5, align 8, !tbaa !29
  %68 = getelementptr inbounds nuw %struct.MJpegDecodeContext, ptr %67, i32 0, i32 88
  %69 = load i32, ptr %68, align 4, !tbaa !294
  %70 = add nsw i32 %69, 1
  %71 = load ptr, ptr %3, align 8, !tbaa !4
  %72 = getelementptr inbounds nuw %struct.AVCodecContext, ptr %71, i32 0, i32 19
  %73 = load i32, ptr %72, align 4, !tbaa !129
  %74 = mul nsw i32 %70, %73
  %75 = sub nsw i32 %66, %74
  %76 = sext i32 %75 to i64
  %77 = load ptr, ptr %4, align 8, !tbaa !155
  %78 = getelementptr inbounds nuw %struct.AVFrame, ptr %77, i32 0, i32 33
  store i64 %76, ptr %78, align 8, !tbaa !328
  %79 = load ptr, ptr %5, align 8, !tbaa !29
  %80 = getelementptr inbounds nuw %struct.MJpegDecodeContext, ptr %79, i32 0, i32 86
  %81 = load ptr, ptr %80, align 16, !tbaa !67
  %82 = getelementptr inbounds nuw %struct.AVFrame, ptr %81, i32 0, i32 9
  %83 = load i64, ptr %82, align 8, !tbaa !329
  %84 = icmp ne i64 %83, -9223372036854775808
  br i1 %84, label %85, label %97

85:                                               ; preds = %59
  %86 = load ptr, ptr %5, align 8, !tbaa !29
  %87 = getelementptr inbounds nuw %struct.MJpegDecodeContext, ptr %86, i32 0, i32 86
  %88 = load ptr, ptr %87, align 16, !tbaa !67
  %89 = getelementptr inbounds nuw %struct.AVFrame, ptr %88, i32 0, i32 38
  %90 = load i64, ptr %89, align 8, !tbaa !303
  %91 = load ptr, ptr %5, align 8, !tbaa !29
  %92 = getelementptr inbounds nuw %struct.MJpegDecodeContext, ptr %91, i32 0, i32 86
  %93 = load ptr, ptr %92, align 16, !tbaa !67
  %94 = getelementptr inbounds nuw %struct.AVFrame, ptr %93, i32 0, i32 9
  %95 = load i64, ptr %94, align 8, !tbaa !329
  %96 = add nsw i64 %95, %90
  store i64 %96, ptr %94, align 8, !tbaa !329
  br label %97

97:                                               ; preds = %85, %59
  %98 = load ptr, ptr %5, align 8, !tbaa !29
  %99 = getelementptr inbounds nuw %struct.MJpegDecodeContext, ptr %98, i32 0, i32 88
  %100 = load i32, ptr %99, align 4, !tbaa !294
  %101 = add nsw i32 %100, 1
  %102 = load ptr, ptr %5, align 8, !tbaa !29
  %103 = getelementptr inbounds nuw %struct.MJpegDecodeContext, ptr %102, i32 0, i32 87
  %104 = load i32, ptr %103, align 8, !tbaa !66
  %105 = srem i32 %101, %104
  %106 = load ptr, ptr %5, align 8, !tbaa !29
  %107 = getelementptr inbounds nuw %struct.MJpegDecodeContext, ptr %106, i32 0, i32 88
  store i32 %105, ptr %107, align 4, !tbaa !294
  %108 = load ptr, ptr %5, align 8, !tbaa !29
  %109 = getelementptr inbounds nuw %struct.MJpegDecodeContext, ptr %108, i32 0, i32 88
  %110 = load i32, ptr %109, align 4, !tbaa !294
  %111 = icmp eq i32 %110, 0
  br i1 %111, label %112, label %116

112:                                              ; preds = %97
  %113 = load ptr, ptr %5, align 8, !tbaa !29
  %114 = getelementptr inbounds nuw %struct.MJpegDecodeContext, ptr %113, i32 0, i32 86
  %115 = load ptr, ptr %114, align 16, !tbaa !67
  call void @av_frame_unref(ptr noundef %115)
  br label %116

116:                                              ; preds = %112, %97
  call void @llvm.lifetime.end.p0(i64 8, ptr %5) #13
  ret void
}

; Function Attrs: nounwind uwtable
define i32 @ff_mjpeg_decode_frame(ptr noundef %0, ptr noundef %1, ptr noundef %2, ptr noundef %3) #3 {
  %5 = alloca ptr, align 8
  %6 = alloca ptr, align 8
  %7 = alloca ptr, align 8
  %8 = alloca ptr, align 8
  store ptr %0, ptr %5, align 8, !tbaa !4
  store ptr %1, ptr %6, align 8, !tbaa !155
  store ptr %2, ptr %7, align 8, !tbaa !211
  store ptr %3, ptr %8, align 8, !tbaa !227
  %9 = load ptr, ptr %5, align 8, !tbaa !4
  %10 = load ptr, ptr %6, align 8, !tbaa !155
  %11 = load ptr, ptr %7, align 8, !tbaa !211
  %12 = load ptr, ptr %8, align 8, !tbaa !227
  %13 = load ptr, ptr %8, align 8, !tbaa !227
  %14 = getelementptr inbounds nuw %struct.AVPacket, ptr %13, i32 0, i32 3
  %15 = load ptr, ptr %14, align 8, !tbaa !286
  %16 = load ptr, ptr %8, align 8, !tbaa !227
  %17 = getelementptr inbounds nuw %struct.AVPacket, ptr %16, i32 0, i32 4
  %18 = load i32, ptr %17, align 8, !tbaa !288
  %19 = call i32 @ff_mjpeg_decode_frame_from_buf(ptr noundef %9, ptr noundef %10, ptr noundef %11, ptr noundef %12, ptr noundef %15, i32 noundef %18)
  ret i32 %19
}

; Function Attrs: nounwind uwtable
define internal i32 @smvjpeg_receive_frame(ptr noundef %0, ptr noundef %1) #3 {
  %3 = alloca i32, align 4
  %4 = alloca ptr, align 8
  %5 = alloca ptr, align 8
  %6 = alloca ptr, align 8
  %7 = alloca ptr, align 8
  %8 = alloca i32, align 4
  %9 = alloca i32, align 4
  %10 = alloca i32, align 4
  store ptr %0, ptr %4, align 8, !tbaa !4
  store ptr %1, ptr %5, align 8, !tbaa !155
  call void @llvm.lifetime.start.p0(i64 8, ptr %6) #13
  %11 = load ptr, ptr %4, align 8, !tbaa !4
  %12 = getelementptr inbounds nuw %struct.AVCodecContext, ptr %11, i32 0, i32 6
  %13 = load ptr, ptr %12, align 8, !tbaa !9
  store ptr %13, ptr %6, align 8, !tbaa !29
  call void @llvm.lifetime.start.p0(i64 8, ptr %7) #13
  %14 = load ptr, ptr %4, align 8, !tbaa !4
  %15 = getelementptr inbounds nuw %struct.AVCodecContext, ptr %14, i32 0, i32 7
  %16 = load ptr, ptr %15, align 8, !tbaa !295
  %17 = getelementptr inbounds nuw %struct.AVCodecInternal, ptr %16, i32 0, i32 6
  %18 = load ptr, ptr %17, align 8, !tbaa !296
  store ptr %18, ptr %7, align 8, !tbaa !227
  call void @llvm.lifetime.start.p0(i64 4, ptr %8) #13
  store i32 0, ptr %8, align 4, !tbaa !57
  call void @llvm.lifetime.start.p0(i64 4, ptr %9) #13
  %19 = load ptr, ptr %6, align 8, !tbaa !29
  %20 = getelementptr inbounds nuw %struct.MJpegDecodeContext, ptr %19, i32 0, i32 88
  %21 = load i32, ptr %20, align 4, !tbaa !294
  %22 = icmp sgt i32 %21, 0
  br i1 %22, label %23, label %24

23:                                               ; preds = %2
  br label %69

24:                                               ; preds = %2
  %25 = load ptr, ptr %4, align 8, !tbaa !4
  %26 = load ptr, ptr %7, align 8, !tbaa !227
  %27 = call i32 @ff_decode_get_packet(ptr noundef %25, ptr noundef %26)
  store i32 %27, ptr %9, align 4, !tbaa !57
  %28 = load i32, ptr %9, align 4, !tbaa !57
  %29 = icmp slt i32 %28, 0
  br i1 %29, label %30, label %32

30:                                               ; preds = %24
  %31 = load i32, ptr %9, align 4, !tbaa !57
  store i32 %31, ptr %3, align 4
  store i32 1, ptr %10, align 4
  br label %94

32:                                               ; preds = %24
  %33 = load ptr, ptr %6, align 8, !tbaa !29
  %34 = getelementptr inbounds nuw %struct.MJpegDecodeContext, ptr %33, i32 0, i32 86
  %35 = load ptr, ptr %34, align 16, !tbaa !67
  call void @av_frame_unref(ptr noundef %35)
  %36 = load ptr, ptr %4, align 8, !tbaa !4
  %37 = load ptr, ptr %6, align 8, !tbaa !29
  %38 = getelementptr inbounds nuw %struct.MJpegDecodeContext, ptr %37, i32 0, i32 86
  %39 = load ptr, ptr %38, align 16, !tbaa !67
  %40 = load ptr, ptr %7, align 8, !tbaa !227
  %41 = call i32 @ff_mjpeg_decode_frame(ptr noundef %36, ptr noundef %39, ptr noundef %8, ptr noundef %40)
  store i32 %41, ptr %9, align 4, !tbaa !57
  %42 = load ptr, ptr %7, align 8, !tbaa !227
  %43 = getelementptr inbounds nuw %struct.AVPacket, ptr %42, i32 0, i32 2
  %44 = load i64, ptr %43, align 8, !tbaa !301
  %45 = load ptr, ptr %6, align 8, !tbaa !29
  %46 = getelementptr inbounds nuw %struct.MJpegDecodeContext, ptr %45, i32 0, i32 86
  %47 = load ptr, ptr %46, align 16, !tbaa !67
  %48 = getelementptr inbounds nuw %struct.AVFrame, ptr %47, i32 0, i32 10
  store i64 %44, ptr %48, align 8, !tbaa !302
  %49 = load ptr, ptr %7, align 8, !tbaa !227
  call void @av_packet_unref(ptr noundef %49)
  %50 = load i32, ptr %9, align 4, !tbaa !57
  %51 = icmp slt i32 %50, 0
  br i1 %51, label %52, label %54

52:                                               ; preds = %32
  %53 = load i32, ptr %9, align 4, !tbaa !57
  store i32 %53, ptr %3, align 4
  store i32 1, ptr %10, align 4
  br label %94

54:                                               ; preds = %32
  %55 = load i32, ptr %8, align 4, !tbaa !57
  %56 = icmp ne i32 %55, 0
  br i1 %56, label %58, label %57

57:                                               ; preds = %54
  store i32 -11, ptr %3, align 4
  store i32 1, ptr %10, align 4
  br label %94

58:                                               ; preds = %54
  %59 = load ptr, ptr %6, align 8, !tbaa !29
  %60 = getelementptr inbounds nuw %struct.MJpegDecodeContext, ptr %59, i32 0, i32 87
  %61 = load i32, ptr %60, align 8, !tbaa !66
  %62 = sext i32 %61 to i64
  %63 = load ptr, ptr %6, align 8, !tbaa !29
  %64 = getelementptr inbounds nuw %struct.MJpegDecodeContext, ptr %63, i32 0, i32 86
  %65 = load ptr, ptr %64, align 16, !tbaa !67
  %66 = getelementptr inbounds nuw %struct.AVFrame, ptr %65, i32 0, i32 38
  %67 = load i64, ptr %66, align 8, !tbaa !303
  %68 = sdiv i64 %67, %62
  store i64 %68, ptr %66, align 8, !tbaa !303
  br label %69

69:                                               ; preds = %58, %23
  br label %70

70:                                               ; preds = %69
  %71 = load ptr, ptr %6, align 8, !tbaa !29
  %72 = getelementptr inbounds nuw %struct.MJpegDecodeContext, ptr %71, i32 0, i32 86
  %73 = load ptr, ptr %72, align 16, !tbaa !67
  %74 = getelementptr inbounds nuw %struct.AVFrame, ptr %73, i32 0, i32 16
  %75 = getelementptr inbounds [8 x ptr], ptr %74, i64 0, i64 0
  %76 = load ptr, ptr %75, align 8, !tbaa !304
  %77 = icmp ne ptr %76, null
  br i1 %77, label %79, label %78

78:                                               ; preds = %70
  call void (ptr, i32, ptr, ...) @av_log(ptr noundef null, i32 noundef 0, ptr noundef @.str.26, ptr noundef @.str.155, ptr noundef @.str.28, i32 noundef 3106)
  call void @abort() #16
  unreachable

79:                                               ; preds = %70
  br label %80

80:                                               ; preds = %79
  br label %81

81:                                               ; preds = %80
  %82 = load ptr, ptr %5, align 8, !tbaa !155
  %83 = load ptr, ptr %6, align 8, !tbaa !29
  %84 = getelementptr inbounds nuw %struct.MJpegDecodeContext, ptr %83, i32 0, i32 86
  %85 = load ptr, ptr %84, align 16, !tbaa !67
  %86 = call i32 @av_frame_ref(ptr noundef %82, ptr noundef %85)
  store i32 %86, ptr %9, align 4, !tbaa !57
  %87 = load i32, ptr %9, align 4, !tbaa !57
  %88 = icmp slt i32 %87, 0
  br i1 %88, label %89, label %91

89:                                               ; preds = %81
  %90 = load i32, ptr %9, align 4, !tbaa !57
  store i32 %90, ptr %3, align 4
  store i32 1, ptr %10, align 4
  br label %94

91:                                               ; preds = %81
  %92 = load ptr, ptr %4, align 8, !tbaa !4
  %93 = load ptr, ptr %5, align 8, !tbaa !155
  call void @smv_process_frame(ptr noundef %92, ptr noundef %93)
  store i32 0, ptr %3, align 4
  store i32 1, ptr %10, align 4
  br label %94

94:                                               ; preds = %91, %89, %57, %52, %30
  call void @llvm.lifetime.end.p0(i64 4, ptr %9) #13
  call void @llvm.lifetime.end.p0(i64 4, ptr %8) #13
  call void @llvm.lifetime.end.p0(i64 8, ptr %7) #13
  call void @llvm.lifetime.end.p0(i64 8, ptr %6) #13
  %95 = load i32, ptr %3, align 4
  ret i32 %95
}