; Function Attrs: nounwind uwtable
define internal range(i32 -2147483648, 1) i32 @smvjpeg_receive_frame(ptr noundef %0, ptr noundef %1) #3 {
  %3 = alloca i32, align 4
  %4 = getelementptr inbounds nuw i8, ptr %0, i64 32
  %5 = load ptr, ptr %4, align 8, !tbaa !4
  %6 = getelementptr inbounds nuw i8, ptr %0, i64 40
  %7 = load ptr, ptr %6, align 8, !tbaa !280
  %8 = getelementptr inbounds nuw i8, ptr %7, i64 40
  %9 = load ptr, ptr %8, align 8, !tbaa !281
  call void @llvm.lifetime.start.p0(i64 4, ptr nonnull %3) #14
  store i32 0, ptr %3, align 4, !tbaa !93
  %10 = getelementptr inbounds nuw i8, ptr %5, i64 2236
  %11 = load i32, ptr %10, align 4, !tbaa !279
  %12 = icmp sgt i32 %11, 0
  br i1 %12, label %._crit_edge, label %13

._crit_edge:                                      ; preds = %2
  %.phi.trans.insert = getelementptr inbounds nuw i8, ptr %5, i64 2224
  %.pre = load ptr, ptr %.phi.trans.insert, align 16, !tbaa !68
  br label %40

13:                                               ; preds = %2
  %14 = tail call i32 @ff_decode_get_packet(ptr noundef nonnull %0, ptr noundef %9) #14
  %15 = icmp slt i32 %14, 0
  br i1 %15, label %smv_process_frame.exit, label %16

16:                                               ; preds = %13
  %17 = getelementptr inbounds nuw i8, ptr %5, i64 2224
  %18 = load ptr, ptr %17, align 16, !tbaa !68
  tail call void @av_frame_unref(ptr noundef %18) #14
  %19 = load ptr, ptr %17, align 16, !tbaa !68
  %20 = getelementptr inbounds nuw i8, ptr %9, i64 24
  %21 = load ptr, ptr %20, align 8, !tbaa !271
  %22 = getelementptr inbounds nuw i8, ptr %9, i64 32
  %23 = load i32, ptr %22, align 8, !tbaa !273
  %24 = call i32 @ff_mjpeg_decode_frame_from_buf(ptr noundef nonnull %0, ptr noundef %19, ptr noundef nonnull %3, ptr readonly poison, ptr noundef %21, i32 noundef %23)
  %25 = getelementptr inbounds nuw i8, ptr %9, i64 16
  %26 = load i64, ptr %25, align 8, !tbaa !287
  %27 = load ptr, ptr %17, align 16, !tbaa !68
  %28 = getelementptr inbounds nuw i8, ptr %27, i64 144
  store i64 %26, ptr %28, align 8, !tbaa !288
  tail call void @av_packet_unref(ptr noundef %9) #14
  %29 = icmp slt i32 %24, 0
  br i1 %29, label %smv_process_frame.exit, label %30

30:                                               ; preds = %16
  %31 = load i32, ptr %3, align 4, !tbaa !93
  %.not = icmp eq i32 %31, 0
  br i1 %.not, label %smv_process_frame.exit, label %32

32:                                               ; preds = %30
  %33 = getelementptr inbounds nuw i8, ptr %5, i64 2232
  %34 = load i32, ptr %33, align 8, !tbaa !66
  %35 = sext i32 %34 to i64
  %36 = load ptr, ptr %17, align 16, !tbaa !68
  %37 = getelementptr inbounds nuw i8, ptr %36, i64 408
  %38 = load i64, ptr %37, align 8, !tbaa !289
  %39 = sdiv i64 %38, %35
  store i64 %39, ptr %37, align 8, !tbaa !289
  br label %40

40:                                               ; preds = %._crit_edge, %32
  %41 = phi ptr [ %.pre, %._crit_edge ], [ %36, %32 ]
  %42 = getelementptr inbounds nuw i8, ptr %41, i64 184
  %43 = load ptr, ptr %42, align 8, !tbaa !290
  %.not28 = icmp eq ptr %43, null
  br i1 %.not28, label %44, label %45

44:                                               ; preds = %40
  tail call void (ptr, i32, ptr, ...) @av_log(ptr noundef null, i32 noundef 0, ptr noundef nonnull @.str.26, ptr noundef nonnull @.str.155, ptr noundef nonnull @.str.28, i32 noundef 3106) #14
  tail call void @abort() #15
  unreachable

45:                                               ; preds = %40
  %46 = tail call i32 @av_frame_ref(ptr noundef %1, ptr noundef nonnull %41) #14
  %47 = icmp slt i32 %46, 0
  br i1 %47, label %smv_process_frame.exit, label %48

48:                                               ; preds = %45
  %49 = load ptr, ptr %4, align 8, !tbaa !4
  %50 = getelementptr inbounds nuw i8, ptr %49, i64 2236
  %51 = load i32, ptr %50, align 4, !tbaa !279
  %52 = add nsw i32 %51, 1
  %53 = getelementptr inbounds nuw i8, ptr %0, i64 116
  %54 = load i32, ptr %53, align 4, !tbaa !121
  %55 = mul nsw i32 %52, %54
  %56 = getelementptr inbounds nuw i8, ptr %0, i64 124
  %57 = load i32, ptr %56, align 4, !tbaa !48
  %.not.i = icmp sgt i32 %55, %57
  br i1 %.not.i, label %58, label %59

58:                                               ; preds = %48
  tail call void (ptr, i32, ptr, ...) @av_log(ptr noundef null, i32 noundef 0, ptr noundef nonnull @.str.26, ptr noundef nonnull @.str.156, ptr noundef nonnull @.str.28, i32 noundef 3062) #14
  tail call void @abort() #15
  unreachable

59:                                               ; preds = %48
  %60 = getelementptr inbounds nuw i8, ptr %0, i64 120
  %61 = load i32, ptr %60, align 8, !tbaa !291
  %62 = getelementptr inbounds nuw i8, ptr %1, i64 104
  store i32 %61, ptr %62, align 8, !tbaa !145
  %63 = getelementptr inbounds nuw i8, ptr %1, i64 108
  store i32 %57, ptr %63, align 4, !tbaa !146
  %64 = mul nsw i32 %54, %51
  %..i = tail call i32 @llvm.smin.i32(i32 %64, i32 %57)
  %65 = sext i32 %..i to i64
  %66 = getelementptr inbounds nuw i8, ptr %1, i64 344
  store i64 %65, ptr %66, align 8, !tbaa !270
  %.neg.i = xor i32 %51, -1
  %.neg29.i = mul i32 %54, %.neg.i
  %67 = add i32 %.neg29.i, %57
  %68 = sext i32 %67 to i64
  %69 = getelementptr inbounds nuw i8, ptr %1, i64 352
  store i64 %68, ptr %69, align 8, !tbaa !292
  %70 = getelementptr inbounds nuw i8, ptr %49, i64 2224
  %71 = load ptr, ptr %70, align 16, !tbaa !68
  %72 = getelementptr inbounds nuw i8, ptr %71, i64 136
  %73 = load i64, ptr %72, align 8, !tbaa !293
  %.not30.i = icmp eq i64 %73, -9223372036854775808
  br i1 %.not30.i, label %78, label %74

74:                                               ; preds = %59
  %75 = getelementptr inbounds nuw i8, ptr %71, i64 408
  %76 = load i64, ptr %75, align 8, !tbaa !289
  %77 = add nsw i64 %76, %73
  store i64 %77, ptr %72, align 8, !tbaa !293
  br label %78

78:                                               ; preds = %74, %59
  %79 = getelementptr inbounds nuw i8, ptr %49, i64 2232
  %80 = load i32, ptr %79, align 8, !tbaa !66
  %81 = srem i32 %52, %80
  store i32 %81, ptr %50, align 4, !tbaa !279
  %82 = icmp eq i32 %81, 0
  br i1 %82, label %83, label %smv_process_frame.exit

83:                                               ; preds = %78
  tail call void @av_frame_unref(ptr noundef nonnull %71) #14
  br label %smv_process_frame.exit

smv_process_frame.exit:                           ; preds = %83, %78, %45, %30, %16, %13
  %.0 = phi i32 [ %14, %13 ], [ %24, %16 ], [ -11, %30 ], [ %46, %45 ], [ 0, %78 ], [ 0, %83 ]
  call void @llvm.lifetime.end.p0(i64 4, ptr nonnull %3) #14
  ret i32 %.0
}